---
triple:          'arm64-apple-darwin'
binary-path:     Prog7
relocations:
  - { offsetInCU: 0x2DC2, offset: 0x2DC2, size: 0x8, addend: 0x0, symName: __ZNSt3__124__put_character_sequenceB7v160006IcNS_11char_traitsIcEEEERNS_13basic_ostreamIT_T0_EES7_PKS4_m, symObjAddr: 0x132C, symBinAddr: 0x10000257C, symSize: 0x1F4 }
  - { offsetInCU: 0x6929, offset: 0x6929, size: 0x8, addend: 0x0, symName: __ZNSt3__1lsB7v160006INS_11char_traitsIcEEEERNS_13basic_ostreamIcT_EES6_PKc, symObjAddr: 0x7C8, symBinAddr: 0x100001A18, symSize: 0x48 }
  - { offsetInCU: 0x76AA, offset: 0x76AA, size: 0x8, addend: 0x0, symName: __ZNSt3__116__pad_and_outputB7v160006IcNS_11char_traitsIcEEEENS_19ostreambuf_iteratorIT_T0_EES6_PKS4_S8_S8_RNS_8ios_baseES4_, symObjAddr: 0x1584, symBinAddr: 0x1000027D4, symSize: 0x248 }
  - { offsetInCU: 0x7779, offset: 0x7779, size: 0x8, addend: 0x0, symName: __ZNSt3__119__debug_db_insert_cB7v160006INS_12basic_stringIcNS_11char_traitsIcEENS_9allocatorIcEEEEEEvPT_, symObjAddr: 0x1A40, symBinAddr: 0x100002C90, symSize: 0x10 }
  - { offsetInCU: 0x77AA, offset: 0x77AA, size: 0x8, addend: 0x0, symName: __ZNSt3__112__to_addressB7v160006IKcEEPT_S3_, symObjAddr: 0x1B0C, symBinAddr: 0x100002D5C, symSize: 0x14 }
  - { offsetInCU: 0x77DF, offset: 0x77DF, size: 0x8, addend: 0x0, symName: __ZNSt3__130__libcpp_is_constant_evaluatedB7v160006Ev, symObjAddr: 0x1C38, symBinAddr: 0x100002E88, symSize: 0xC }
  - { offsetInCU: 0x782F, offset: 0x782F, size: 0x8, addend: 0x0, symName: __ZNSt3__19use_facetB7v160006INS_5ctypeIcEEEERKT_RKNS_6localeE, symObjAddr: 0x1DF0, symBinAddr: 0x100003040, symSize: 0x2C }
  - { offsetInCU: 0x7CFE, offset: 0x7CFE, size: 0x8, addend: 0x0, symName: __ZNSt3__118__constexpr_strlenB7v160006EPKc, symObjAddr: 0x1E88, symBinAddr: 0x1000030D8, symSize: 0x24 }
  - { offsetInCU: 0x7ED9, offset: 0x7ED9, size: 0x8, addend: 0x0, symName: __ZNSt3__112__to_addressB7v160006IPPN3bstIiE4nodeEEEPT_S7_, symObjAddr: 0x2B30, symBinAddr: 0x100003D80, symSize: 0x14 }
  - { offsetInCU: 0x7F0E, offset: 0x7F0E, size: 0x8, addend: 0x0, symName: __ZNSt3__119__libcpp_deallocateB7v160006EPvmm, symObjAddr: 0x2BC8, symBinAddr: 0x100003E18, symSize: 0x30 }
  - { offsetInCU: 0x7F56, offset: 0x7F56, size: 0x8, addend: 0x0, symName: __ZNSt3__127__do_deallocate_handle_sizeB7v160006IJEEEvPvmDpT_, symObjAddr: 0x2BF8, symBinAddr: 0x100003E48, symSize: 0x28 }
  - { offsetInCU: 0x7F94, offset: 0x7F94, size: 0x8, addend: 0x0, symName: __ZNSt3__124__libcpp_operator_deleteB7v160006IJPvEEEvDpT_, symObjAddr: 0x2C20, symBinAddr: 0x100003E70, symSize: 0x24 }
  - { offsetInCU: 0x7FC9, offset: 0x7FC9, size: 0x8, addend: 0x0, symName: __ZNSt3__13maxB7v160006ImEERKT_S3_S3_, symObjAddr: 0x3BD4, symBinAddr: 0x100004E24, symSize: 0x2C }
  - { offsetInCU: 0x8495, offset: 0x8495, size: 0x8, addend: 0x0, symName: __ZNSt3__14swapB7v160006IPPPN3bstIiE4nodeEEEvRT_S8_, symObjAddr: 0x4234, symBinAddr: 0x100005484, symSize: 0x3C }
  - { offsetInCU: 0x84E6, offset: 0x84E6, size: 0x8, addend: 0x0, symName: __ZNSt3__14moveB7v160006IPPPN3bstIiE4nodeES6_EET0_T_S8_S7_, symObjAddr: 0x4364, symBinAddr: 0x1000055B4, symSize: 0x40 }
  - { offsetInCU: 0x855C, offset: 0x855C, size: 0x8, addend: 0x0, symName: __ZNSt3__16__moveB7v160006INS_17_ClassicAlgPolicyEPPPN3bstIiE4nodeES7_S7_EENS_4pairIT0_T2_EES9_T1_SA_, symObjAddr: 0x4510, symBinAddr: 0x100005760, symSize: 0x44 }
  - { offsetInCU: 0x85C8, offset: 0x85C8, size: 0x8, addend: 0x0, symName: __ZNSt3__123__dispatch_copy_or_moveB7v160006INS_17_ClassicAlgPolicyENS_11__move_loopIS1_EENS_14__move_trivialEPPPN3bstIiE4nodeESA_SA_EENS_4pairIT2_T4_EESC_T3_SD_, symObjAddr: 0x4554, symBinAddr: 0x1000057A4, symSize: 0x54 }
  - { offsetInCU: 0x8646, offset: 0x8646, size: 0x8, addend: 0x0, symName: __ZNSt3__121__unwrap_and_dispatchB7v160006INS_10__overloadINS_11__move_loopINS_17_ClassicAlgPolicyEEENS_14__move_trivialEEEPPPN3bstIiE4nodeESC_SC_Li0EEENS_4pairIT0_T2_EESE_T1_SF_, symObjAddr: 0x45A8, symBinAddr: 0x1000057F8, symSize: 0xB4 }
  - { offsetInCU: 0x86D4, offset: 0x86D4, size: 0x8, addend: 0x0, symName: __ZNSt3__114__unwrap_rangeB7v160006IPPPN3bstIiE4nodeES6_EENS_4pairIT0_S8_EET_SA_, symObjAddr: 0x465C, symBinAddr: 0x1000058AC, symSize: 0x60 }
  - { offsetInCU: 0x8813, offset: 0x8813, size: 0x8, addend: 0x0, symName: __ZNSt3__113__unwrap_iterB7v160006IPPPN3bstIiE4nodeENS_18__unwrap_iter_implIS6_Lb1EEELi0EEEDTclsrT0_8__unwrapclsr3stdE7declvalIT_EEEESA_, symObjAddr: 0x4704, symBinAddr: 0x100005954, symSize: 0x24 }
  - { offsetInCU: 0x8857, offset: 0x8857, size: 0x8, addend: 0x0, symName: __ZNSt3__19make_pairB7v160006IPPPN3bstIiE4nodeES6_EENS_4pairINS_18__unwrap_ref_decayIT_E4typeENS8_IT0_E4typeEEEOS9_OSC_, symObjAddr: 0x4728, symBinAddr: 0x100005978, symSize: 0x38 }
  - { offsetInCU: 0x88A6, offset: 0x88A6, size: 0x8, addend: 0x0, symName: __ZNSt3__114__rewrap_rangeB7v160006IPPPN3bstIiE4nodeES6_EET_S7_T0_, symObjAddr: 0x4760, symBinAddr: 0x1000059B0, symSize: 0x2C }
  - { offsetInCU: 0x88F2, offset: 0x88F2, size: 0x8, addend: 0x0, symName: __ZNSt3__113__rewrap_iterB7v160006IPPPN3bstIiE4nodeES6_NS_18__unwrap_iter_implIS6_Lb1EEEEET_S9_T0_, symObjAddr: 0x478C, symBinAddr: 0x1000059DC, symSize: 0x50 }
  - { offsetInCU: 0x8947, offset: 0x8947, size: 0x8, addend: 0x0, symName: __ZNSt3__119__copy_trivial_implB7v160006IPPN3bstIiE4nodeES5_EENS_4pairIPT_PT0_EES8_S8_SA_, symObjAddr: 0x47DC, symBinAddr: 0x100005A2C, symSize: 0x84 }
  - { offsetInCU: 0x89AF, offset: 0x89AF, size: 0x8, addend: 0x0, symName: __ZNSt3__19make_pairB7v160006IRPPPN3bstIiE4nodeES6_EENS_4pairINS_18__unwrap_ref_decayIT_E4typeENS9_IT0_E4typeEEEOSA_OSD_, symObjAddr: 0x4860, symBinAddr: 0x100005AB0, symSize: 0x38 }
  - { offsetInCU: 0x8A51, offset: 0x8A51, size: 0x8, addend: 0x0, symName: __ZNSt3__18distanceB7v160006INS_13move_iteratorIPPPN3bstIiE4nodeEEEEENS_15iterator_traitsIT_E15difference_typeESA_SA_, symObjAddr: 0x497C, symBinAddr: 0x100005BCC, symSize: 0x3C }
  - { offsetInCU: 0x8A94, offset: 0x8A94, size: 0x8, addend: 0x0, symName: __ZNSt3__110__distanceB7v160006INS_13move_iteratorIPPPN3bstIiE4nodeEEEEENS_15iterator_traitsIT_E15difference_typeESA_SA_NS_26random_access_iterator_tagE, symObjAddr: 0x4AB4, symBinAddr: 0x100005D04, symSize: 0x30 }
  - { offsetInCU: 0x8AE1, offset: 0x8AE1, size: 0x8, addend: 0x0, symName: __ZNSt3__1miB7v160006IPPPN3bstIiE4nodeES6_EENS_13move_iteratorIT_E15difference_typeERKS9_RKNS7_IT0_EE, symObjAddr: 0x4AE4, symBinAddr: 0x100005D34, symSize: 0x48 }
  - { offsetInCU: 0x8B30, offset: 0x8B30, size: 0x8, addend: 0x0, symName: __ZNSt3__117__libcpp_allocateB7v160006Emm, symObjAddr: 0x4D34, symBinAddr: 0x100005F84, symSize: 0x28 }
  - { offsetInCU: 0x8B6D, offset: 0x8B6D, size: 0x8, addend: 0x0, symName: __ZNSt3__121__libcpp_operator_newB7v160006IJmEEEPvDpT_, symObjAddr: 0x4D70, symBinAddr: 0x100005FC0, symSize: 0x24 }
  - { offsetInCU: 0x8BA6, offset: 0x8BA6, size: 0x8, addend: 0x0, symName: __ZNSt3__113move_backwardB7v160006IPPPN3bstIiE4nodeES6_EET0_T_S8_S7_, symObjAddr: 0x4D94, symBinAddr: 0x100005FE4, symSize: 0x40 }
  - { offsetInCU: 0x8C00, offset: 0x8C00, size: 0x8, addend: 0x0, symName: __ZNSt3__115__move_backwardB7v160006INS_17_ClassicAlgPolicyEPPPN3bstIiE4nodeES7_S7_EENS_4pairIT0_T2_EES9_T1_SA_, symObjAddr: 0x4DD4, symBinAddr: 0x100006024, symSize: 0x44 }
  - { offsetInCU: 0x8C6C, offset: 0x8C6C, size: 0x8, addend: 0x0, symName: __ZNSt3__123__dispatch_copy_or_moveB7v160006INS_17_ClassicAlgPolicyENS_20__move_backward_loopIS1_EENS_23__move_backward_trivialEPPPN3bstIiE4nodeESA_SA_EENS_4pairIT2_T4_EESC_T3_SD_, symObjAddr: 0x4E18, symBinAddr: 0x100006068, symSize: 0x54 }
  - { offsetInCU: 0x8CEA, offset: 0x8CEA, size: 0x8, addend: 0x0, symName: __ZNSt3__121__unwrap_and_dispatchB7v160006INS_10__overloadINS_20__move_backward_loopINS_17_ClassicAlgPolicyEEENS_23__move_backward_trivialEEEPPPN3bstIiE4nodeESC_SC_Li0EEENS_4pairIT0_T2_EESE_T1_SF_, symObjAddr: 0x4E6C, symBinAddr: 0x1000060BC, symSize: 0xB4 }
  - { offsetInCU: 0x8DBE, offset: 0x8DBE, size: 0x8, addend: 0x0, symName: __ZNSt3__128__copy_backward_trivial_implB7v160006IPPN3bstIiE4nodeES5_EENS_4pairIPT_PT0_EES8_S8_SA_, symObjAddr: 0x4F68, symBinAddr: 0x1000061B8, symSize: 0x94 }
  - { offsetInCU: 0x8E26, offset: 0x8E26, size: 0x8, addend: 0x0, symName: __ZNSt3__19make_pairB7v160006IRPPPN3bstIiE4nodeES7_EENS_4pairINS_18__unwrap_ref_decayIT_E4typeENS9_IT0_E4typeEEEOSA_OSD_, symObjAddr: 0x4FFC, symBinAddr: 0x10000624C, symSize: 0x38 }
  - { offsetInCU: 0x8E75, offset: 0x8E75, size: 0x8, addend: 0x0, symName: __ZNSt3__13maxB7v160006ImNS_6__lessImmEEEERKT_S5_S5_T0_, symObjAddr: 0x5034, symBinAddr: 0x100006284, symSize: 0x54 }
  - { offsetInCU: 0x8F0A, offset: 0x8F0A, size: 0x8, addend: 0x0, symName: __ZNSt3__119__allocate_at_leastB7v160006INS_9allocatorIPPN3bstIiE4nodeEEEEENS_19__allocation_resultINS_16allocator_traitsIT_E7pointerEEERSA_m, symObjAddr: 0x51CC, symBinAddr: 0x10000641C, symSize: 0x40 }
  - { offsetInCU: 0x8F4D, offset: 0x8F4D, size: 0x8, addend: 0x0, symName: __ZNSt3__112__to_addressB7v160006IPN3bstIiE4nodeEEEPT_S6_, symObjAddr: 0x5B48, symBinAddr: 0x100006D98, symSize: 0x14 }
  - { offsetInCU: 0x8F82, offset: 0x8F82, size: 0x8, addend: 0x0, symName: __ZNSt3__1lsB7v160006IcNS_11char_traitsIcEEEERNS_13basic_ostreamIT_T0_EES7_RKNS_8__iom_t6E, symObjAddr: 0x5C78, symBinAddr: 0x100006EC8, symSize: 0x40 }
  - { offsetInCU: 0x8FD1, offset: 0x8FD1, size: 0x8, addend: 0x0, symName: __ZNSt3__14setwB7v160006Ei, symObjAddr: 0x5CB8, symBinAddr: 0x100006F08, symSize: 0x2C }
  - { offsetInCU: 0x8FFF, offset: 0x8FFF, size: 0x8, addend: 0x0, symName: __ZNSt3__1neB7v160006ERKNS_16__deque_iteratorIPN3bstIiE4nodeEPS4_RS4_PS5_lLl512EEESA_, symObjAddr: 0x6044, symBinAddr: 0x100007294, symSize: 0x34 }
  - { offsetInCU: 0x903C, offset: 0x903C, size: 0x8, addend: 0x0, symName: __ZNSt3__1eqB7v160006ERKNS_16__deque_iteratorIPN3bstIiE4nodeEPS4_RS4_PS5_lLl512EEESA_, symObjAddr: 0x60E8, symBinAddr: 0x100007338, symSize: 0x30 }
  - { offsetInCU: 0x9195, offset: 0x9195, size: 0x8, addend: 0x0, symName: __ZSt28__throw_bad_array_new_lengthB7v160006v, symObjAddr: 0x4D00, symBinAddr: 0x100005F50, symSize: 0x34 }
  - { offsetInCU: 0xBBC0, offset: 0xBBC0, size: 0x8, addend: 0x0, symName: _main, symObjAddr: 0x0, symBinAddr: 0x100001250, symSize: 0x7C8 }
  - { offsetInCU: 0xBC8F, offset: 0xBC8F, size: 0x8, addend: 0x0, symName: __ZN3bstIiEC1Ev, symObjAddr: 0x810, symBinAddr: 0x100001A60, symSize: 0x2C }
  - { offsetInCU: 0xBDD0, offset: 0xBDD0, size: 0x8, addend: 0x0, symName: __ZNSt3__114basic_ifstreamIcNS_11char_traitsIcEEEC1EPKcj, symObjAddr: 0x83C, symBinAddr: 0x100001A8C, symSize: 0x17C }
  - { offsetInCU: 0xBE1A, offset: 0xBE1A, size: 0x8, addend: 0x0, symName: __ZNKSt3__19basic_iosIcNS_11char_traitsIcEEEcvPvB7v160006Ev, symObjAddr: 0x9B8, symBinAddr: 0x100001C08, symSize: 0x4C }
  - { offsetInCU: 0xBE40, offset: 0xBE40, size: 0x8, addend: 0x0, symName: __ZN3bstIiE6insertERi, symObjAddr: 0xA04, symBinAddr: 0x100001C54, symSize: 0x3C }
  - { offsetInCU: 0xBE75, offset: 0xBE75, size: 0x8, addend: 0x0, symName: __ZNSt3__114basic_ifstreamIcNS_11char_traitsIcEEE5closeEv, symObjAddr: 0xA40, symBinAddr: 0x100001C90, symSize: 0x58 }
  - { offsetInCU: 0xBE9D, offset: 0xBE9D, size: 0x8, addend: 0x0, symName: __ZN3bstIiE5emptyEv, symObjAddr: 0xA98, symBinAddr: 0x100001CE8, symSize: 0x24 }
  - { offsetInCU: 0xBEC3, offset: 0xBEC3, size: 0x8, addend: 0x0, symName: __ZN3bstIiE13print_bylevelEv, symObjAddr: 0xABC, symBinAddr: 0x100001D0C, symSize: 0x148 }
  - { offsetInCU: 0xBF06, offset: 0xBF06, size: 0x8, addend: 0x0, symName: __Z13print_forwardIN3bstIiE8iteratorEEvT_S3_, symObjAddr: 0xC04, symBinAddr: 0x100001E54, symSize: 0xAC }
  - { offsetInCU: 0xBF46, offset: 0xBF46, size: 0x8, addend: 0x0, symName: __ZN3bstIiE5beginEv, symObjAddr: 0xCB0, symBinAddr: 0x100001F00, symSize: 0x94 }
  - { offsetInCU: 0xBF7B, offset: 0xBF7B, size: 0x8, addend: 0x0, symName: __ZN3bstIiE3endEv, symObjAddr: 0xD44, symBinAddr: 0x100001F94, symSize: 0x2C }
  - { offsetInCU: 0xBFA2, offset: 0xBFA2, size: 0x8, addend: 0x0, symName: __Z13print_reverseIN3bstIiE8iteratorEEvT_S3_, symObjAddr: 0xD70, symBinAddr: 0x100001FC0, symSize: 0xAC }
  - { offsetInCU: 0xBFE2, offset: 0xBFE2, size: 0x8, addend: 0x0, symName: __ZN3bstIiE6rbeginEv, symObjAddr: 0xE1C, symBinAddr: 0x10000206C, symSize: 0x64 }
  - { offsetInCU: 0xC019, offset: 0xC019, size: 0x8, addend: 0x0, symName: __ZN3bstIiE4rendEv, symObjAddr: 0xE80, symBinAddr: 0x1000020D0, symSize: 0x2C }
  - { offsetInCU: 0xC041, offset: 0xC041, size: 0x8, addend: 0x0, symName: __ZN3bstIiE8iteratorC1Ev, symObjAddr: 0xEAC, symBinAddr: 0x1000020FC, symSize: 0x2C }
  - { offsetInCU: 0xC06C, offset: 0xC06C, size: 0x8, addend: 0x0, symName: __ZNKSt3__19basic_iosIcNS_11char_traitsIcEEE3eofB7v160006Ev, symObjAddr: 0xED8, symBinAddr: 0x100002128, symSize: 0x28 }
  - { offsetInCU: 0xC092, offset: 0xC092, size: 0x8, addend: 0x0, symName: __ZN3bstIiE11lower_boundERKi, symObjAddr: 0xF00, symBinAddr: 0x100002150, symSize: 0xA4 }
  - { offsetInCU: 0xC0E6, offset: 0xC0E6, size: 0x8, addend: 0x0, symName: __ZN3bstIiE11upper_boundERKi, symObjAddr: 0xFA4, symBinAddr: 0x1000021F4, symSize: 0xA4 }
  - { offsetInCU: 0xC13A, offset: 0xC13A, size: 0x8, addend: 0x0, symName: __ZNK3bstIiE8iteratorneERKS1_, symObjAddr: 0x1048, symBinAddr: 0x100002298, symSize: 0x30 }
  - { offsetInCU: 0xC170, offset: 0xC170, size: 0x8, addend: 0x0, symName: __ZN3bstIiE8iteratordeEv, symObjAddr: 0x1078, symBinAddr: 0x1000022C8, symSize: 0x1C }
  - { offsetInCU: 0xC198, offset: 0xC198, size: 0x8, addend: 0x0, symName: __ZNK3bstIiE8iteratoreqERKS1_, symObjAddr: 0x1094, symBinAddr: 0x1000022E4, symSize: 0x30 }
  - { offsetInCU: 0xC1CE, offset: 0xC1CE, size: 0x8, addend: 0x0, symName: __ZN3bstIiE8iteratormmEv, symObjAddr: 0x10C4, symBinAddr: 0x100002314, symSize: 0xFC }
  - { offsetInCU: 0xC1FB, offset: 0xC1FB, size: 0x8, addend: 0x0, symName: __ZNSt3__114basic_ifstreamIcNS_11char_traitsIcEEED1Ev, symObjAddr: 0x11C0, symBinAddr: 0x100002410, symSize: 0x70 }
  - { offsetInCU: 0xC228, offset: 0xC228, size: 0x8, addend: 0x0, symName: __ZN3bstIiED1Ev, symObjAddr: 0x123C, symBinAddr: 0x10000248C, symSize: 0x2C }
  - { offsetInCU: 0xC252, offset: 0xC252, size: 0x8, addend: 0x0, symName: __ZNSt3__114basic_ifstreamIcNS_11char_traitsIcEEED2Ev, symObjAddr: 0x1268, symBinAddr: 0x1000024B8, symSize: 0x9C }
  - { offsetInCU: 0xC28C, offset: 0xC28C, size: 0x8, addend: 0x0, symName: __ZTv0_n24_NSt3__114basic_ifstreamIcNS_11char_traitsIcEEED1Ev, symObjAddr: 0x1304, symBinAddr: 0x100002554, symSize: 0x28 }
  - { offsetInCU: 0xC2A3, offset: 0xC2A3, size: 0x8, addend: 0x0, symName: __ZNSt3__111char_traitsIcE6lengthEPKc, symObjAddr: 0x1520, symBinAddr: 0x100002770, symSize: 0x48 }
  - { offsetInCU: 0xC2E4, offset: 0xC2E4, size: 0x8, addend: 0x0, symName: __ZNKSt3__113basic_ostreamIcNS_11char_traitsIcEEE6sentrycvbB7v160006Ev, symObjAddr: 0x1568, symBinAddr: 0x1000027B8, symSize: 0x1C }
  - { offsetInCU: 0xC30A, offset: 0xC30A, size: 0x8, addend: 0x0, symName: __ZNSt3__119ostreambuf_iteratorIcNS_11char_traitsIcEEEC1B7v160006ERNS_13basic_ostreamIcS2_EE, symObjAddr: 0x17CC, symBinAddr: 0x100002A1C, symSize: 0x34 }
  - { offsetInCU: 0xC342, offset: 0xC342, size: 0x8, addend: 0x0, symName: __ZNKSt3__18ios_base5flagsB7v160006Ev, symObjAddr: 0x1800, symBinAddr: 0x100002A50, symSize: 0x18 }
  - { offsetInCU: 0xC36A, offset: 0xC36A, size: 0x8, addend: 0x0, symName: __ZNKSt3__19basic_iosIcNS_11char_traitsIcEEE4fillB7v160006Ev, symObjAddr: 0x1818, symBinAddr: 0x100002A68, symSize: 0x64 }
  - { offsetInCU: 0xC392, offset: 0xC392, size: 0x8, addend: 0x0, symName: __ZNKSt3__119ostreambuf_iteratorIcNS_11char_traitsIcEEE6failedB7v160006Ev, symObjAddr: 0x187C, symBinAddr: 0x100002ACC, symSize: 0x24 }
  - { offsetInCU: 0xC3B8, offset: 0xC3B8, size: 0x8, addend: 0x0, symName: __ZNSt3__19basic_iosIcNS_11char_traitsIcEEE8setstateB7v160006Ej, symObjAddr: 0x18A0, symBinAddr: 0x100002AF0, symSize: 0x2C }
  - { offsetInCU: 0xC3ED, offset: 0xC3ED, size: 0x8, addend: 0x0, symName: __ZNKSt3__18ios_base5widthB7v160006Ev, symObjAddr: 0x18CC, symBinAddr: 0x100002B1C, symSize: 0x18 }
  - { offsetInCU: 0xC415, offset: 0xC415, size: 0x8, addend: 0x0, symName: __ZNSt3__115basic_streambufIcNS_11char_traitsIcEEE5sputnB7v160006EPKcl, symObjAddr: 0x18E4, symBinAddr: 0x100002B34, symSize: 0x3C }
  - { offsetInCU: 0xC457, offset: 0xC457, size: 0x8, addend: 0x0, symName: __ZNSt3__112basic_stringIcNS_11char_traitsIcEENS_9allocatorIcEEEC1B7v160006Emc, symObjAddr: 0x1920, symBinAddr: 0x100002B70, symSize: 0x3C }
  - { offsetInCU: 0xC49F, offset: 0xC49F, size: 0x8, addend: 0x0, symName: __ZNKSt3__112basic_stringIcNS_11char_traitsIcEENS_9allocatorIcEEE4dataB7v160006Ev, symObjAddr: 0x195C, symBinAddr: 0x100002BAC, symSize: 0x28 }
  - { offsetInCU: 0xC4C5, offset: 0xC4C5, size: 0x8, addend: 0x0, symName: __ZNSt3__18ios_base5widthB7v160006El, symObjAddr: 0x1984, symBinAddr: 0x100002BD4, symSize: 0x2C }
  - { offsetInCU: 0xC50B, offset: 0xC50B, size: 0x8, addend: 0x0, symName: __ZNSt3__112basic_stringIcNS_11char_traitsIcEENS_9allocatorIcEEEC2B7v160006Emc, symObjAddr: 0x19B0, symBinAddr: 0x100002C00, symSize: 0x54 }
  - { offsetInCU: 0xC558, offset: 0xC558, size: 0x8, addend: 0x0, symName: __ZNSt3__117__compressed_pairINS_12basic_stringIcNS_11char_traitsIcEENS_9allocatorIcEEE5__repES5_EC1B7v160006INS_18__default_init_tagESA_EEOT_OT0_, symObjAddr: 0x1A04, symBinAddr: 0x100002C54, symSize: 0x3C }
  - { offsetInCU: 0xC5B0, offset: 0xC5B0, size: 0x8, addend: 0x0, symName: __ZNSt3__117__compressed_pairINS_12basic_stringIcNS_11char_traitsIcEENS_9allocatorIcEEE5__repES5_EC2B7v160006INS_18__default_init_tagESA_EEOT_OT0_, symObjAddr: 0x1A50, symBinAddr: 0x100002CA0, symSize: 0x3C }
  - { offsetInCU: 0xC608, offset: 0xC608, size: 0x8, addend: 0x0, symName: __ZNSt3__122__compressed_pair_elemINS_12basic_stringIcNS_11char_traitsIcEENS_9allocatorIcEEE5__repELi0ELb0EEC2B7v160006ENS_18__default_init_tagE, symObjAddr: 0x1A8C, symBinAddr: 0x100002CDC, symSize: 0x14 }
  - { offsetInCU: 0xC63C, offset: 0xC63C, size: 0x8, addend: 0x0, symName: __ZNSt3__122__compressed_pair_elemINS_9allocatorIcEELi1ELb1EEC2B7v160006ENS_18__default_init_tagE, symObjAddr: 0x1AA0, symBinAddr: 0x100002CF0, symSize: 0x2C }
  - { offsetInCU: 0xC670, offset: 0xC670, size: 0x8, addend: 0x0, symName: __ZNSt3__19allocatorIcEC2B7v160006Ev, symObjAddr: 0x1ACC, symBinAddr: 0x100002D1C, symSize: 0x2C }
  - { offsetInCU: 0xC69A, offset: 0xC69A, size: 0x8, addend: 0x0, symName: __ZNSt3__116__non_trivial_ifILb1ENS_9allocatorIcEEEC2B7v160006Ev, symObjAddr: 0x1AF8, symBinAddr: 0x100002D48, symSize: 0x14 }
  - { offsetInCU: 0xC6C4, offset: 0xC6C4, size: 0x8, addend: 0x0, symName: __ZNKSt3__112basic_stringIcNS_11char_traitsIcEENS_9allocatorIcEEE13__get_pointerB7v160006Ev, symObjAddr: 0x1B20, symBinAddr: 0x100002D70, symSize: 0x54 }
  - { offsetInCU: 0xC6EA, offset: 0xC6EA, size: 0x8, addend: 0x0, symName: __ZNKSt3__112basic_stringIcNS_11char_traitsIcEENS_9allocatorIcEEE9__is_longB7v160006Ev, symObjAddr: 0x1B74, symBinAddr: 0x100002DC4, symSize: 0x74 }
  - { offsetInCU: 0xC710, offset: 0xC710, size: 0x8, addend: 0x0, symName: __ZNKSt3__112basic_stringIcNS_11char_traitsIcEENS_9allocatorIcEEE18__get_long_pointerB7v160006Ev, symObjAddr: 0x1BE8, symBinAddr: 0x100002E38, symSize: 0x28 }
  - { offsetInCU: 0xC736, offset: 0xC736, size: 0x8, addend: 0x0, symName: __ZNKSt3__112basic_stringIcNS_11char_traitsIcEENS_9allocatorIcEEE19__get_short_pointerB7v160006Ev, symObjAddr: 0x1C10, symBinAddr: 0x100002E60, symSize: 0x28 }
  - { offsetInCU: 0xC75C, offset: 0xC75C, size: 0x8, addend: 0x0, symName: __ZNKSt3__117__compressed_pairINS_12basic_stringIcNS_11char_traitsIcEENS_9allocatorIcEEE5__repES5_E5firstB7v160006Ev, symObjAddr: 0x1C44, symBinAddr: 0x100002E94, symSize: 0x24 }
  - { offsetInCU: 0xC782, offset: 0xC782, size: 0x8, addend: 0x0, symName: __ZNKSt3__122__compressed_pair_elemINS_12basic_stringIcNS_11char_traitsIcEENS_9allocatorIcEEE5__repELi0ELb0EE5__getB7v160006Ev, symObjAddr: 0x1C68, symBinAddr: 0x100002EB8, symSize: 0x14 }
  - { offsetInCU: 0xC7A8, offset: 0xC7A8, size: 0x8, addend: 0x0, symName: __ZNSt3__114pointer_traitsIPKcE10pointer_toB7v160006ERS1_, symObjAddr: 0x1C7C, symBinAddr: 0x100002ECC, symSize: 0x14 }
  - { offsetInCU: 0xC7CB, offset: 0xC7CB, size: 0x8, addend: 0x0, symName: __ZNSt3__119ostreambuf_iteratorIcNS_11char_traitsIcEEEC2B7v160006ERNS_13basic_ostreamIcS2_EE, symObjAddr: 0x1C90, symBinAddr: 0x100002EE0, symSize: 0x68 }
  - { offsetInCU: 0xC803, offset: 0xC803, size: 0x8, addend: 0x0, symName: __ZNKSt3__19basic_iosIcNS_11char_traitsIcEEE5rdbufB7v160006Ev, symObjAddr: 0x1CF8, symBinAddr: 0x100002F48, symSize: 0x24 }
  - { offsetInCU: 0xC82B, offset: 0xC82B, size: 0x8, addend: 0x0, symName: __ZNKSt3__18ios_base5rdbufB7v160006Ev, symObjAddr: 0x1D1C, symBinAddr: 0x100002F6C, symSize: 0x18 }
  - { offsetInCU: 0xC851, offset: 0xC851, size: 0x8, addend: 0x0, symName: __ZNSt3__111char_traitsIcE11eq_int_typeEii, symObjAddr: 0x1D34, symBinAddr: 0x100002F84, symSize: 0x28 }
  - { offsetInCU: 0xC882, offset: 0xC882, size: 0x8, addend: 0x0, symName: __ZNSt3__111char_traitsIcE3eofEv, symObjAddr: 0x1D5C, symBinAddr: 0x100002FAC, symSize: 0x8 }
  - { offsetInCU: 0xC896, offset: 0xC896, size: 0x8, addend: 0x0, symName: __ZNKSt3__19basic_iosIcNS_11char_traitsIcEEE5widenB7v160006Ec, symObjAddr: 0x1D64, symBinAddr: 0x100002FB4, symSize: 0x8C }
  - { offsetInCU: 0xC904, offset: 0xC904, size: 0x8, addend: 0x0, symName: __ZNKSt3__15ctypeIcE5widenB7v160006Ec, symObjAddr: 0x1E1C, symBinAddr: 0x10000306C, symSize: 0x38 }
  - { offsetInCU: 0xC939, offset: 0xC939, size: 0x8, addend: 0x0, symName: __ZNSt3__18ios_base8setstateB7v160006Ej, symObjAddr: 0x1E54, symBinAddr: 0x1000030A4, symSize: 0x34 }
  - { offsetInCU: 0xC970, offset: 0xC970, size: 0x8, addend: 0x0, symName: __ZN3bstIiEC2Ev, symObjAddr: 0x1EAC, symBinAddr: 0x1000030FC, symSize: 0x1C }
  - { offsetInCU: 0xC99A, offset: 0xC99A, size: 0x8, addend: 0x0, symName: __ZN3bstIiED2Ev, symObjAddr: 0x1EC8, symBinAddr: 0x100003118, symSize: 0x30 }
  - { offsetInCU: 0xC9C4, offset: 0xC9C4, size: 0x8, addend: 0x0, symName: __ZN3bstIiE5clearEPNS0_4nodeE, symObjAddr: 0x1EF8, symBinAddr: 0x100003148, symSize: 0x88 }
  - { offsetInCU: 0xC9F9, offset: 0xC9F9, size: 0x8, addend: 0x0, symName: __ZNSt3__19basic_iosIcNS_11char_traitsIcEEEC2B7v160006Ev, symObjAddr: 0x1F80, symBinAddr: 0x1000031D0, symSize: 0x44 }
  - { offsetInCU: 0xCA23, offset: 0xCA23, size: 0x8, addend: 0x0, symName: __ZNSt3__113basic_istreamIcNS_11char_traitsIcEEEC2B7v160006EPNS_15basic_streambufIcS2_EE, symObjAddr: 0x1FC4, symBinAddr: 0x100003214, symSize: 0x64 }
  - { offsetInCU: 0xCA68, offset: 0xCA68, size: 0x8, addend: 0x0, symName: __ZNSt3__18ios_baseC2B7v160006Ev, symObjAddr: 0x2028, symBinAddr: 0x100003278, symSize: 0x24 }
  - { offsetInCU: 0xCA92, offset: 0xCA92, size: 0x8, addend: 0x0, symName: __ZNSt3__19basic_iosIcNS_11char_traitsIcEEE4initB7v160006EPNS_15basic_streambufIcS2_EE, symObjAddr: 0x204C, symBinAddr: 0x10000329C, symSize: 0x44 }
  - { offsetInCU: 0xCAC9, offset: 0xCAC9, size: 0x8, addend: 0x0, symName: __ZNKSt3__19basic_iosIcNS_11char_traitsIcEEE4failB7v160006Ev, symObjAddr: 0x2090, symBinAddr: 0x1000032E0, symSize: 0x28 }
  - { offsetInCU: 0xCAEF, offset: 0xCAEF, size: 0x8, addend: 0x0, symName: __ZNKSt3__18ios_base4failB7v160006Ev, symObjAddr: 0x20B8, symBinAddr: 0x100003308, symSize: 0x28 }
  - { offsetInCU: 0xCB17, offset: 0xCB17, size: 0x8, addend: 0x0, symName: __ZN3bstIiE6insertEPNS0_4nodeERi, symObjAddr: 0x20E0, symBinAddr: 0x100003330, symSize: 0x154 }
  - { offsetInCU: 0xCB5A, offset: 0xCB5A, size: 0x8, addend: 0x0, symName: __ZN3bstIiE4nodeC1Ei, symObjAddr: 0x2234, symBinAddr: 0x100003484, symSize: 0x34 }
  - { offsetInCU: 0xCB92, offset: 0xCB92, size: 0x8, addend: 0x0, symName: __ZN3bstIiE4nodeC2Ei, symObjAddr: 0x2268, symBinAddr: 0x1000034B8, symSize: 0x2C }
  - { offsetInCU: 0xCBF7, offset: 0xCBF7, size: 0x8, addend: 0x0, symName: __ZNSt3__15queueIPN3bstIiE4nodeENS_5dequeIS4_NS_9allocatorIS4_EEEEEC1B7v160006Ev, symObjAddr: 0x2294, symBinAddr: 0x1000034E4, symSize: 0x2C }
  - { offsetInCU: 0xCC21, offset: 0xCC21, size: 0x8, addend: 0x0, symName: __ZNSt3__15queueIPN3bstIiE4nodeENS_5dequeIS4_NS_9allocatorIS4_EEEEE4pushB7v160006ERKS4_, symObjAddr: 0x22C0, symBinAddr: 0x100003510, symSize: 0x2C }
  - { offsetInCU: 0xCC56, offset: 0xCC56, size: 0x8, addend: 0x0, symName: __ZNKSt3__15queueIPN3bstIiE4nodeENS_5dequeIS4_NS_9allocatorIS4_EEEEE5emptyB7v160006Ev, symObjAddr: 0x22EC, symBinAddr: 0x10000353C, symSize: 0x28 }
  - { offsetInCU: 0xCC7C, offset: 0xCC7C, size: 0x8, addend: 0x0, symName: __ZNSt3__15queueIPN3bstIiE4nodeENS_5dequeIS4_NS_9allocatorIS4_EEEEE5frontB7v160006Ev, symObjAddr: 0x2314, symBinAddr: 0x100003564, symSize: 0x24 }
  - { offsetInCU: 0xCCA2, offset: 0xCCA2, size: 0x8, addend: 0x0, symName: __ZNSt3__15queueIPN3bstIiE4nodeENS_5dequeIS4_NS_9allocatorIS4_EEEEE3popB7v160006Ev, symObjAddr: 0x2338, symBinAddr: 0x100003588, symSize: 0x24 }
  - { offsetInCU: 0xCCC8, offset: 0xCCC8, size: 0x8, addend: 0x0, symName: __ZN3bstIiE4node5printEv, symObjAddr: 0x235C, symBinAddr: 0x1000035AC, symSize: 0x1F8 }
  - { offsetInCU: 0xCCEF, offset: 0xCCEF, size: 0x8, addend: 0x0, symName: __ZNSt3__15queueIPN3bstIiE4nodeENS_5dequeIS4_NS_9allocatorIS4_EEEEED1Ev, symObjAddr: 0x2554, symBinAddr: 0x1000037A4, symSize: 0x2C }
  - { offsetInCU: 0xCD1C, offset: 0xCD1C, size: 0x8, addend: 0x0, symName: __ZNSt3__15queueIPN3bstIiE4nodeENS_5dequeIS4_NS_9allocatorIS4_EEEEEC2B7v160006Ev, symObjAddr: 0x2580, symBinAddr: 0x1000037D0, symSize: 0x2C }
  - { offsetInCU: 0xCD46, offset: 0xCD46, size: 0x8, addend: 0x0, symName: __ZNSt3__15dequeIPN3bstIiE4nodeENS_9allocatorIS4_EEEC1B7v160006Ev, symObjAddr: 0x25AC, symBinAddr: 0x1000037FC, symSize: 0x2C }
  - { offsetInCU: 0xCD70, offset: 0xCD70, size: 0x8, addend: 0x0, symName: __ZNSt3__15dequeIPN3bstIiE4nodeENS_9allocatorIS4_EEEC2B7v160006Ev, symObjAddr: 0x25D8, symBinAddr: 0x100003828, symSize: 0x78 }
  - { offsetInCU: 0xCD9A, offset: 0xCD9A, size: 0x8, addend: 0x0, symName: __ZNSt3__114__split_bufferIPPN3bstIiE4nodeENS_9allocatorIS5_EEEC1Ev, symObjAddr: 0x2650, symBinAddr: 0x1000038A0, symSize: 0x2C }
  - { offsetInCU: 0xCDCB, offset: 0xCDCB, size: 0x8, addend: 0x0, symName: __ZNSt3__117__compressed_pairImNS_9allocatorIPN3bstIiE4nodeEEEEC1B7v160006IiNS_18__default_init_tagEEEOT_OT0_, symObjAddr: 0x267C, symBinAddr: 0x1000038CC, symSize: 0x3C }
  - { offsetInCU: 0xCE23, offset: 0xCE23, size: 0x8, addend: 0x0, symName: __ZNSt3__114__split_bufferIPPN3bstIiE4nodeENS_9allocatorIS5_EEED1Ev, symObjAddr: 0x26B8, symBinAddr: 0x100003908, symSize: 0x2C }
  - { offsetInCU: 0xCE4F, offset: 0xCE4F, size: 0x8, addend: 0x0, symName: __ZNSt3__114__split_bufferIPPN3bstIiE4nodeENS_9allocatorIS5_EEEC2Ev, symObjAddr: 0x26E4, symBinAddr: 0x100003934, symSize: 0x48 }
  - { offsetInCU: 0xCE80, offset: 0xCE80, size: 0x8, addend: 0x0, symName: __ZNSt3__117__compressed_pairIPPPN3bstIiE4nodeENS_9allocatorIS5_EEEC1B7v160006IDnNS_18__default_init_tagEEEOT_OT0_, symObjAddr: 0x272C, symBinAddr: 0x10000397C, symSize: 0x3C }
  - { offsetInCU: 0xCED8, offset: 0xCED8, size: 0x8, addend: 0x0, symName: __ZNSt3__117__compressed_pairIPPPN3bstIiE4nodeENS_9allocatorIS5_EEEC2B7v160006IDnNS_18__default_init_tagEEEOT_OT0_, symObjAddr: 0x2768, symBinAddr: 0x1000039B8, symSize: 0x40 }
  - { offsetInCU: 0xCF30, offset: 0xCF30, size: 0x8, addend: 0x0, symName: __ZNSt3__122__compressed_pair_elemIPPPN3bstIiE4nodeELi0ELb0EEC2B7v160006IDnvEEOT_, symObjAddr: 0x27A8, symBinAddr: 0x1000039F8, symSize: 0x1C }
  - { offsetInCU: 0xCF72, offset: 0xCF72, size: 0x8, addend: 0x0, symName: __ZNSt3__122__compressed_pair_elemINS_9allocatorIPPN3bstIiE4nodeEEELi1ELb1EEC2B7v160006ENS_18__default_init_tagE, symObjAddr: 0x27C4, symBinAddr: 0x100003A14, symSize: 0x2C }
  - { offsetInCU: 0xCFA6, offset: 0xCFA6, size: 0x8, addend: 0x0, symName: __ZNSt3__19allocatorIPPN3bstIiE4nodeEEC2B7v160006Ev, symObjAddr: 0x27F0, symBinAddr: 0x100003A40, symSize: 0x2C }
  - { offsetInCU: 0xCFD0, offset: 0xCFD0, size: 0x8, addend: 0x0, symName: __ZNSt3__116__non_trivial_ifILb1ENS_9allocatorIPPN3bstIiE4nodeEEEEC2B7v160006Ev, symObjAddr: 0x281C, symBinAddr: 0x100003A6C, symSize: 0x14 }
  - { offsetInCU: 0xCFFA, offset: 0xCFFA, size: 0x8, addend: 0x0, symName: __ZNSt3__117__compressed_pairImNS_9allocatorIPN3bstIiE4nodeEEEEC2B7v160006IiNS_18__default_init_tagEEEOT_OT0_, symObjAddr: 0x2830, symBinAddr: 0x100003A80, symSize: 0x40 }
  - { offsetInCU: 0xD052, offset: 0xD052, size: 0x8, addend: 0x0, symName: __ZNSt3__122__compressed_pair_elemImLi0ELb0EEC2B7v160006IivEEOT_, symObjAddr: 0x2870, symBinAddr: 0x100003AC0, symSize: 0x24 }
  - { offsetInCU: 0xD094, offset: 0xD094, size: 0x8, addend: 0x0, symName: __ZNSt3__122__compressed_pair_elemINS_9allocatorIPN3bstIiE4nodeEEELi1ELb1EEC2B7v160006ENS_18__default_init_tagE, symObjAddr: 0x2894, symBinAddr: 0x100003AE4, symSize: 0x2C }
  - { offsetInCU: 0xD0C8, offset: 0xD0C8, size: 0x8, addend: 0x0, symName: __ZNSt3__19allocatorIPN3bstIiE4nodeEEC2B7v160006Ev, symObjAddr: 0x28C0, symBinAddr: 0x100003B10, symSize: 0x2C }
  - { offsetInCU: 0xD0F2, offset: 0xD0F2, size: 0x8, addend: 0x0, symName: __ZNSt3__116__non_trivial_ifILb1ENS_9allocatorIPN3bstIiE4nodeEEEEC2B7v160006Ev, symObjAddr: 0x28EC, symBinAddr: 0x100003B3C, symSize: 0x14 }
  - { offsetInCU: 0xD11C, offset: 0xD11C, size: 0x8, addend: 0x0, symName: __ZNSt3__114__split_bufferIPPN3bstIiE4nodeENS_9allocatorIS5_EEED2Ev, symObjAddr: 0x2900, symBinAddr: 0x100003B50, symSize: 0x80 }
  - { offsetInCU: 0xD148, offset: 0xD148, size: 0x8, addend: 0x0, symName: __ZNSt3__114__split_bufferIPPN3bstIiE4nodeENS_9allocatorIS5_EEE5clearB7v160006Ev, symObjAddr: 0x2980, symBinAddr: 0x100003BD0, symSize: 0x28 }
  - { offsetInCU: 0xD16E, offset: 0xD16E, size: 0x8, addend: 0x0, symName: __ZNSt3__116allocator_traitsINS_9allocatorIPPN3bstIiE4nodeEEEE10deallocateB7v160006ERS7_PS6_m, symObjAddr: 0x29A8, symBinAddr: 0x100003BF8, symSize: 0x34 }
  - { offsetInCU: 0xD1B0, offset: 0xD1B0, size: 0x8, addend: 0x0, symName: __ZNSt3__114__split_bufferIPPN3bstIiE4nodeENS_9allocatorIS5_EEE7__allocB7v160006Ev, symObjAddr: 0x29DC, symBinAddr: 0x100003C2C, symSize: 0x28 }
  - { offsetInCU: 0xD1D6, offset: 0xD1D6, size: 0x8, addend: 0x0, symName: __ZNKSt3__114__split_bufferIPPN3bstIiE4nodeENS_9allocatorIS5_EEE8capacityB7v160006Ev, symObjAddr: 0x2A04, symBinAddr: 0x100003C54, symSize: 0x40 }
  - { offsetInCU: 0xD1FC, offset: 0xD1FC, size: 0x8, addend: 0x0, symName: __ZNSt3__114__split_bufferIPPN3bstIiE4nodeENS_9allocatorIS5_EEE17__destruct_at_endB7v160006EPS5_, symObjAddr: 0x2A44, symBinAddr: 0x100003C94, symSize: 0x2C }
  - { offsetInCU: 0xD230, offset: 0xD230, size: 0x8, addend: 0x0, symName: __ZNSt3__114__split_bufferIPPN3bstIiE4nodeENS_9allocatorIS5_EEE17__destruct_at_endB7v160006EPS5_NS_17integral_constantIbLb0EEE, symObjAddr: 0x2A70, symBinAddr: 0x100003CC0, symSize: 0x94 }
  - { offsetInCU: 0xD270, offset: 0xD270, size: 0x8, addend: 0x0, symName: __ZNSt3__116allocator_traitsINS_9allocatorIPPN3bstIiE4nodeEEEE7destroyB7v160006IS6_vEEvRS7_PT_, symObjAddr: 0x2B04, symBinAddr: 0x100003D54, symSize: 0x2C }
  - { offsetInCU: 0xD2AD, offset: 0xD2AD, size: 0x8, addend: 0x0, symName: __ZNSt3__19allocatorIPPN3bstIiE4nodeEE7destroyB7v160006EPS5_, symObjAddr: 0x2B44, symBinAddr: 0x100003D94, symSize: 0x14 }
  - { offsetInCU: 0xD2E1, offset: 0xD2E1, size: 0x8, addend: 0x0, symName: __ZNSt3__19allocatorIPPN3bstIiE4nodeEE10deallocateB7v160006EPS5_m, symObjAddr: 0x2B58, symBinAddr: 0x100003DA8, symSize: 0x70 }
  - { offsetInCU: 0xD323, offset: 0xD323, size: 0x8, addend: 0x0, symName: __ZNSt3__117__compressed_pairIPPPN3bstIiE4nodeENS_9allocatorIS5_EEE6secondB7v160006Ev, symObjAddr: 0x2C44, symBinAddr: 0x100003E94, symSize: 0x24 }
  - { offsetInCU: 0xD349, offset: 0xD349, size: 0x8, addend: 0x0, symName: __ZNSt3__122__compressed_pair_elemINS_9allocatorIPPN3bstIiE4nodeEEELi1ELb1EE5__getB7v160006Ev, symObjAddr: 0x2C68, symBinAddr: 0x100003EB8, symSize: 0x14 }
  - { offsetInCU: 0xD36F, offset: 0xD36F, size: 0x8, addend: 0x0, symName: __ZNKSt3__114__split_bufferIPPN3bstIiE4nodeENS_9allocatorIS5_EEE9__end_capB7v160006Ev, symObjAddr: 0x2C7C, symBinAddr: 0x100003ECC, symSize: 0x28 }
  - { offsetInCU: 0xD395, offset: 0xD395, size: 0x8, addend: 0x0, symName: __ZNKSt3__117__compressed_pairIPPPN3bstIiE4nodeENS_9allocatorIS5_EEE5firstB7v160006Ev, symObjAddr: 0x2CA4, symBinAddr: 0x100003EF4, symSize: 0x24 }
  - { offsetInCU: 0xD3BB, offset: 0xD3BB, size: 0x8, addend: 0x0, symName: __ZNKSt3__122__compressed_pair_elemIPPPN3bstIiE4nodeELi0ELb0EE5__getB7v160006Ev, symObjAddr: 0x2CC8, symBinAddr: 0x100003F18, symSize: 0x14 }
  - { offsetInCU: 0xD3E1, offset: 0xD3E1, size: 0x8, addend: 0x0, symName: __ZNSt3__15dequeIPN3bstIiE4nodeENS_9allocatorIS4_EEE9push_backERKS4_, symObjAddr: 0x2CDC, symBinAddr: 0x100003F2C, symSize: 0xA0 }
  - { offsetInCU: 0xD427, offset: 0xD427, size: 0x8, addend: 0x0, symName: __ZNSt3__15dequeIPN3bstIiE4nodeENS_9allocatorIS4_EEE7__allocB7v160006Ev, symObjAddr: 0x2D7C, symBinAddr: 0x100003FCC, symSize: 0x28 }
  - { offsetInCU: 0xD44D, offset: 0xD44D, size: 0x8, addend: 0x0, symName: __ZNKSt3__15dequeIPN3bstIiE4nodeENS_9allocatorIS4_EEE12__back_spareB7v160006Ev, symObjAddr: 0x2DA4, symBinAddr: 0x100003FF4, symSize: 0x54 }
  - { offsetInCU: 0xD473, offset: 0xD473, size: 0x8, addend: 0x0, symName: __ZNSt3__15dequeIPN3bstIiE4nodeENS_9allocatorIS4_EEE19__add_back_capacityEv, symObjAddr: 0x2DF8, symBinAddr: 0x100004048, symSize: 0x32C }
  - { offsetInCU: 0xD52B, offset: 0xD52B, size: 0x8, addend: 0x0, symName: __ZNSt3__116allocator_traitsINS_9allocatorIPN3bstIiE4nodeEEEE9constructB7v160006IS5_JRKS5_EvEEvRS6_PT_DpOT0_, symObjAddr: 0x3124, symBinAddr: 0x100004374, symSize: 0x34 }
  - { offsetInCU: 0xD582, offset: 0xD582, size: 0x8, addend: 0x0, symName: __ZNSt3__15dequeIPN3bstIiE4nodeENS_9allocatorIS4_EEE3endB7v160006Ev, symObjAddr: 0x3158, symBinAddr: 0x1000043A8, symSize: 0xE0 }
  - { offsetInCU: 0xD5C6, offset: 0xD5C6, size: 0x8, addend: 0x0, symName: __ZNKSt3__116__deque_iteratorIPN3bstIiE4nodeEPS4_RS4_PS5_lLl512EEdeB7v160006Ev, symObjAddr: 0x3238, symBinAddr: 0x100004488, symSize: 0x18 }
  - { offsetInCU: 0xD5EC, offset: 0xD5EC, size: 0x8, addend: 0x0, symName: __ZNSt3__15dequeIPN3bstIiE4nodeENS_9allocatorIS4_EEE6__sizeB7v160006Ev, symObjAddr: 0x3250, symBinAddr: 0x1000044A0, symSize: 0x28 }
  - { offsetInCU: 0xD612, offset: 0xD612, size: 0x8, addend: 0x0, symName: __ZNSt3__117__compressed_pairImNS_9allocatorIPN3bstIiE4nodeEEEE6secondB7v160006Ev, symObjAddr: 0x3278, symBinAddr: 0x1000044C8, symSize: 0x24 }
  - { offsetInCU: 0xD638, offset: 0xD638, size: 0x8, addend: 0x0, symName: __ZNSt3__122__compressed_pair_elemINS_9allocatorIPN3bstIiE4nodeEEELi1ELb1EE5__getB7v160006Ev, symObjAddr: 0x329C, symBinAddr: 0x1000044EC, symSize: 0x14 }
  - { offsetInCU: 0xD65E, offset: 0xD65E, size: 0x8, addend: 0x0, symName: __ZNKSt3__15dequeIPN3bstIiE4nodeENS_9allocatorIS4_EEE10__capacityB7v160006Ev, symObjAddr: 0x32B0, symBinAddr: 0x100004500, symSize: 0x60 }
  - { offsetInCU: 0xD684, offset: 0xD684, size: 0x8, addend: 0x0, symName: __ZNKSt3__15dequeIPN3bstIiE4nodeENS_9allocatorIS4_EEE4sizeB7v160006Ev, symObjAddr: 0x3310, symBinAddr: 0x100004560, symSize: 0x28 }
  - { offsetInCU: 0xD6AA, offset: 0xD6AA, size: 0x8, addend: 0x0, symName: __ZNKSt3__114__split_bufferIPPN3bstIiE4nodeENS_9allocatorIS5_EEE4sizeB7v160006Ev, symObjAddr: 0x3338, symBinAddr: 0x100004588, symSize: 0x28 }
  - { offsetInCU: 0xD6D0, offset: 0xD6D0, size: 0x8, addend: 0x0, symName: __ZNKSt3__15dequeIPN3bstIiE4nodeENS_9allocatorIS4_EEE6__sizeB7v160006Ev, symObjAddr: 0x3360, symBinAddr: 0x1000045B0, symSize: 0x28 }
  - { offsetInCU: 0xD6F6, offset: 0xD6F6, size: 0x8, addend: 0x0, symName: __ZNKSt3__117__compressed_pairImNS_9allocatorIPN3bstIiE4nodeEEEE5firstB7v160006Ev, symObjAddr: 0x3388, symBinAddr: 0x1000045D8, symSize: 0x24 }
  - { offsetInCU: 0xD71C, offset: 0xD71C, size: 0x8, addend: 0x0, symName: __ZNKSt3__122__compressed_pair_elemImLi0ELb0EE5__getB7v160006Ev, symObjAddr: 0x33AC, symBinAddr: 0x1000045FC, symSize: 0x14 }
  - { offsetInCU: 0xD742, offset: 0xD742, size: 0x8, addend: 0x0, symName: __ZNKSt3__15dequeIPN3bstIiE4nodeENS_9allocatorIS4_EEE13__front_spareB7v160006Ev, symObjAddr: 0x33C0, symBinAddr: 0x100004610, symSize: 0x18 }
  - { offsetInCU: 0xD768, offset: 0xD768, size: 0x8, addend: 0x0, symName: __ZNSt3__114__split_bufferIPPN3bstIiE4nodeENS_9allocatorIS5_EEE5frontB7v160006Ev, symObjAddr: 0x33D8, symBinAddr: 0x100004628, symSize: 0x18 }
  - { offsetInCU: 0xD78E, offset: 0xD78E, size: 0x8, addend: 0x0, symName: __ZNSt3__114__split_bufferIPPN3bstIiE4nodeENS_9allocatorIS5_EEE9pop_frontB7v160006Ev, symObjAddr: 0x33F0, symBinAddr: 0x100004640, symSize: 0x2C }
  - { offsetInCU: 0xD7B4, offset: 0xD7B4, size: 0x8, addend: 0x0, symName: __ZNSt3__114__split_bufferIPPN3bstIiE4nodeENS_9allocatorIS5_EEE9push_backB7v160006ERKS5_, symObjAddr: 0x341C, symBinAddr: 0x10000466C, symSize: 0x270 }
  - { offsetInCU: 0xD82D, offset: 0xD82D, size: 0x8, addend: 0x0, symName: __ZNKSt3__114__split_bufferIPPN3bstIiE4nodeENS_9allocatorIS5_EEE12__back_spareB7v160006Ev, symObjAddr: 0x368C, symBinAddr: 0x1000048DC, symSize: 0x40 }
  - { offsetInCU: 0xD853, offset: 0xD853, size: 0x8, addend: 0x0, symName: __ZNSt3__114__split_bufferIPPN3bstIiE4nodeENS_9allocatorIS5_EEE9push_backEOS5_, symObjAddr: 0x36CC, symBinAddr: 0x10000491C, symSize: 0x270 }
  - { offsetInCU: 0xD8CC, offset: 0xD8CC, size: 0x8, addend: 0x0, symName: __ZNSt3__116allocator_traitsINS_9allocatorIPN3bstIiE4nodeEEEE8allocateB7v160006ERS6_m, symObjAddr: 0x393C, symBinAddr: 0x100004B8C, symSize: 0x2C }
  - { offsetInCU: 0xD8FF, offset: 0xD8FF, size: 0x8, addend: 0x0, symName: __ZNSt3__114__split_bufferIPPN3bstIiE4nodeENS_9allocatorIS5_EEE10push_frontEOS5_, symObjAddr: 0x3968, symBinAddr: 0x100004BB8, symSize: 0x26C }
  - { offsetInCU: 0xD978, offset: 0xD978, size: 0x8, addend: 0x0, symName: __ZNSt3__114__split_bufferIPPN3bstIiE4nodeERNS_9allocatorIS5_EEEC1EmmS8_, symObjAddr: 0x3C00, symBinAddr: 0x100004E50, symSize: 0x44 }
  - { offsetInCU: 0xD9D3, offset: 0xD9D3, size: 0x8, addend: 0x0, symName: __ZNSt3__122__allocator_destructorINS_9allocatorIPN3bstIiE4nodeEEEEC1B7v160006ERS6_m, symObjAddr: 0x3C44, symBinAddr: 0x100004E94, symSize: 0x3C }
  - { offsetInCU: 0xDA9B, offset: 0xDA9B, size: 0x8, addend: 0x0, symName: __ZNSt3__110unique_ptrIPPN3bstIiE4nodeENS_22__allocator_destructorINS_9allocatorIS4_EEEEEC1B7v160006ILb1EvEES5_NS_16__dependent_typeINS_27__unique_ptr_deleter_sfinaeIS9_EEXT_EE20__good_rval_ref_typeE, symObjAddr: 0x3C80, symBinAddr: 0x100004ED0, symSize: 0x3C }
  - { offsetInCU: 0xDAEC, offset: 0xDAEC, size: 0x8, addend: 0x0, symName: __ZNSt3__114__split_bufferIPPN3bstIiE4nodeERNS_9allocatorIS5_EEE9push_backEOS5_, symObjAddr: 0x3CBC, symBinAddr: 0x100004F0C, symSize: 0x270 }
  - { offsetInCU: 0xDB65, offset: 0xDB65, size: 0x8, addend: 0x0, symName: __ZNKSt3__110unique_ptrIPPN3bstIiE4nodeENS_22__allocator_destructorINS_9allocatorIS4_EEEEE3getB7v160006Ev, symObjAddr: 0x3F2C, symBinAddr: 0x10000517C, symSize: 0x28 }
  - { offsetInCU: 0xDB8B, offset: 0xDB8B, size: 0x8, addend: 0x0, symName: __ZNSt3__110unique_ptrIPPN3bstIiE4nodeENS_22__allocator_destructorINS_9allocatorIS4_EEEEE7releaseB7v160006Ev, symObjAddr: 0x3F54, symBinAddr: 0x1000051A4, symSize: 0x44 }
  - { offsetInCU: 0xDBC0, offset: 0xDBC0, size: 0x8, addend: 0x0, symName: __ZNSt3__114__split_bufferIPPN3bstIiE4nodeENS_9allocatorIS5_EEE3endB7v160006Ev, symObjAddr: 0x3F98, symBinAddr: 0x1000051E8, symSize: 0x18 }
  - { offsetInCU: 0xDBE6, offset: 0xDBE6, size: 0x8, addend: 0x0, symName: __ZNSt3__114__split_bufferIPPN3bstIiE4nodeENS_9allocatorIS5_EEE5beginB7v160006Ev, symObjAddr: 0x3FB0, symBinAddr: 0x100005200, symSize: 0x18 }
  - { offsetInCU: 0xDC0C, offset: 0xDC0C, size: 0x8, addend: 0x0, symName: __ZNSt3__114__split_bufferIPPN3bstIiE4nodeERNS_9allocatorIS5_EEE10push_frontERKS5_, symObjAddr: 0x3FC8, symBinAddr: 0x100005218, symSize: 0x26C }
  - { offsetInCU: 0xDC85, offset: 0xDC85, size: 0x8, addend: 0x0, symName: __ZNSt3__114__split_bufferIPPN3bstIiE4nodeENS_9allocatorIS5_EEE9__end_capB7v160006Ev, symObjAddr: 0x4270, symBinAddr: 0x1000054C0, symSize: 0x28 }
  - { offsetInCU: 0xDCAB, offset: 0xDCAB, size: 0x8, addend: 0x0, symName: __ZNSt3__114__split_bufferIPPN3bstIiE4nodeERNS_9allocatorIS5_EEE9__end_capB7v160006Ev, symObjAddr: 0x4298, symBinAddr: 0x1000054E8, symSize: 0x28 }
  - { offsetInCU: 0xDCD1, offset: 0xDCD1, size: 0x8, addend: 0x0, symName: __ZNSt3__110unique_ptrIPPN3bstIiE4nodeENS_22__allocator_destructorINS_9allocatorIS4_EEEEED1B7v160006Ev, symObjAddr: 0x42C0, symBinAddr: 0x100005510, symSize: 0x2C }
  - { offsetInCU: 0xDCFB, offset: 0xDCFB, size: 0x8, addend: 0x0, symName: __ZNSt3__114__split_bufferIPPN3bstIiE4nodeERNS_9allocatorIS5_EEED1Ev, symObjAddr: 0x42EC, symBinAddr: 0x10000553C, symSize: 0x2C }
  - { offsetInCU: 0xDD27, offset: 0xDD27, size: 0x8, addend: 0x0, symName: __ZNSt3__114__split_bufferIPPN3bstIiE4nodeENS_9allocatorIS5_EEE19__destruct_at_beginB7v160006EPS5_, symObjAddr: 0x4318, symBinAddr: 0x100005568, symSize: 0x2C }
  - { offsetInCU: 0xDD5B, offset: 0xDD5B, size: 0x8, addend: 0x0, symName: __ZNSt3__114__split_bufferIPPN3bstIiE4nodeENS_9allocatorIS5_EEE19__destruct_at_beginEPS5_NS_17integral_constantIbLb1EEE, symObjAddr: 0x4344, symBinAddr: 0x100005594, symSize: 0x20 }
  - { offsetInCU: 0xDD9B, offset: 0xDD9B, size: 0x8, addend: 0x0, symName: __ZNSt3__114__split_bufferIPPN3bstIiE4nodeERNS_9allocatorIS5_EEE18__construct_at_endINS_13move_iteratorIPS5_EEEENS_9enable_ifIXsr27__is_cpp17_forward_iteratorIT_EE5valueEvE4typeESF_SF_, symObjAddr: 0x43A4, symBinAddr: 0x1000055F4, symSize: 0x104 }
  - { offsetInCU: 0xDDF7, offset: 0xDDF7, size: 0x8, addend: 0x0, symName: __ZNSt3__113move_iteratorIPPPN3bstIiE4nodeEEC1B7v160006ES6_, symObjAddr: 0x44A8, symBinAddr: 0x1000056F8, symSize: 0x34 }
  - { offsetInCU: 0xDE2F, offset: 0xDE2F, size: 0x8, addend: 0x0, symName: __ZNSt3__116allocator_traitsINS_9allocatorIPPN3bstIiE4nodeEEEE9constructB7v160006IS6_JRKS6_EvEEvRS7_PT_DpOT0_, symObjAddr: 0x44DC, symBinAddr: 0x10000572C, symSize: 0x34 }
  - { offsetInCU: 0xDEA9, offset: 0xDEA9, size: 0x8, addend: 0x0, symName: __ZNKSt3__114__move_trivialclB7v160006IPPN3bstIiE4nodeES6_Li0EEENS_4pairIPT_PT0_EES9_S9_SB_, symObjAddr: 0x46BC, symBinAddr: 0x10000590C, symSize: 0x48 }
  - { offsetInCU: 0xDF11, offset: 0xDF11, size: 0x8, addend: 0x0, symName: __ZNSt3__14pairIPPPN3bstIiE4nodeES6_EC1B7v160006ERKS6_S9_, symObjAddr: 0x4898, symBinAddr: 0x100005AE8, symSize: 0x3C }
  - { offsetInCU: 0xDF57, offset: 0xDF57, size: 0x8, addend: 0x0, symName: __ZNSt3__14pairIPPPN3bstIiE4nodeES6_EC2B7v160006ERKS6_S9_, symObjAddr: 0x48D4, symBinAddr: 0x100005B24, symSize: 0x34 }
  - { offsetInCU: 0xDF9D, offset: 0xDF9D, size: 0x8, addend: 0x0, symName: __ZNSt3__118__unwrap_iter_implIPPPN3bstIiE4nodeELb1EE8__unwrapB7v160006ES6_, symObjAddr: 0x4908, symBinAddr: 0x100005B58, symSize: 0x24 }
  - { offsetInCU: 0xDFC0, offset: 0xDFC0, size: 0x8, addend: 0x0, symName: __ZNSt3__118__unwrap_iter_implIPPPN3bstIiE4nodeELb1EE8__rewrapB7v160006ES6_S6_, symObjAddr: 0x492C, symBinAddr: 0x100005B7C, symSize: 0x50 }
  - { offsetInCU: 0xDFFB, offset: 0xDFFB, size: 0x8, addend: 0x0, symName: __ZNSt3__114__split_bufferIPPN3bstIiE4nodeERNS_9allocatorIS5_EEE21_ConstructTransactionC1B7v160006EPPS5_m, symObjAddr: 0x49B8, symBinAddr: 0x100005C08, symSize: 0x3C }
  - { offsetInCU: 0xE041, offset: 0xE041, size: 0x8, addend: 0x0, symName: __ZNSt3__116allocator_traitsINS_9allocatorIPPN3bstIiE4nodeEEEE9constructB7v160006IS6_JS6_EvEEvRS7_PT_DpOT0_, symObjAddr: 0x49F4, symBinAddr: 0x100005C44, symSize: 0x34 }
  - { offsetInCU: 0xE098, offset: 0xE098, size: 0x8, addend: 0x0, symName: __ZNSt3__114__split_bufferIPPN3bstIiE4nodeERNS_9allocatorIS5_EEE7__allocB7v160006Ev, symObjAddr: 0x4A28, symBinAddr: 0x100005C78, symSize: 0x28 }
  - { offsetInCU: 0xE0BE, offset: 0xE0BE, size: 0x8, addend: 0x0, symName: __ZNKSt3__113move_iteratorIPPPN3bstIiE4nodeEEdeB7v160006Ev, symObjAddr: 0x4A50, symBinAddr: 0x100005CA0, symSize: 0x18 }
  - { offsetInCU: 0xE0E4, offset: 0xE0E4, size: 0x8, addend: 0x0, symName: __ZNSt3__113move_iteratorIPPPN3bstIiE4nodeEEppB7v160006Ev, symObjAddr: 0x4A68, symBinAddr: 0x100005CB8, symSize: 0x20 }
  - { offsetInCU: 0xE10A, offset: 0xE10A, size: 0x8, addend: 0x0, symName: __ZNSt3__114__split_bufferIPPN3bstIiE4nodeERNS_9allocatorIS5_EEE21_ConstructTransactionD1B7v160006Ev, symObjAddr: 0x4A88, symBinAddr: 0x100005CD8, symSize: 0x2C }
  - { offsetInCU: 0xE134, offset: 0xE134, size: 0x8, addend: 0x0, symName: __ZNKSt3__113move_iteratorIPPPN3bstIiE4nodeEE4baseB7v160006Ev, symObjAddr: 0x4B2C, symBinAddr: 0x100005D7C, symSize: 0x18 }
  - { offsetInCU: 0xE15A, offset: 0xE15A, size: 0x8, addend: 0x0, symName: __ZNSt3__114__split_bufferIPPN3bstIiE4nodeERNS_9allocatorIS5_EEE21_ConstructTransactionC2B7v160006EPPS5_m, symObjAddr: 0x4B44, symBinAddr: 0x100005D94, symSize: 0x44 }
  - { offsetInCU: 0xE1A0, offset: 0xE1A0, size: 0x8, addend: 0x0, symName: __ZNSt3__19allocatorIPPN3bstIiE4nodeEE9constructB7v160006IS5_JS5_EEEvPT_DpOT0_, symObjAddr: 0x4B88, symBinAddr: 0x100005DD8, symSize: 0x28 }
  - { offsetInCU: 0xE1F6, offset: 0xE1F6, size: 0x8, addend: 0x0, symName: __ZNSt3__117__compressed_pairIPPPN3bstIiE4nodeERNS_9allocatorIS5_EEE6secondB7v160006Ev, symObjAddr: 0x4BB0, symBinAddr: 0x100005E00, symSize: 0x28 }
  - { offsetInCU: 0xE21C, offset: 0xE21C, size: 0x8, addend: 0x0, symName: __ZNSt3__122__compressed_pair_elemIRNS_9allocatorIPPN3bstIiE4nodeEEELi1ELb0EE5__getB7v160006Ev, symObjAddr: 0x4BD8, symBinAddr: 0x100005E28, symSize: 0x18 }
  - { offsetInCU: 0xE242, offset: 0xE242, size: 0x8, addend: 0x0, symName: __ZNSt3__114__split_bufferIPPN3bstIiE4nodeERNS_9allocatorIS5_EEE21_ConstructTransactionD2B7v160006Ev, symObjAddr: 0x4BF0, symBinAddr: 0x100005E40, symSize: 0x20 }
  - { offsetInCU: 0xE26C, offset: 0xE26C, size: 0x8, addend: 0x0, symName: __ZNSt3__113move_iteratorIPPPN3bstIiE4nodeEEC2B7v160006ES6_, symObjAddr: 0x4C10, symBinAddr: 0x100005E60, symSize: 0x20 }
  - { offsetInCU: 0xE2A4, offset: 0xE2A4, size: 0x8, addend: 0x0, symName: __ZNSt3__19allocatorIPPN3bstIiE4nodeEE9constructB7v160006IS5_JRKS5_EEEvPT_DpOT0_, symObjAddr: 0x4C30, symBinAddr: 0x100005E80, symSize: 0x28 }
  - { offsetInCU: 0xE2FA, offset: 0xE2FA, size: 0x8, addend: 0x0, symName: __ZNSt3__19allocatorIPN3bstIiE4nodeEE8allocateB7v160006Em, symObjAddr: 0x4C58, symBinAddr: 0x100005EA8, symSize: 0x84 }
  - { offsetInCU: 0xE338, offset: 0xE338, size: 0x8, addend: 0x0, symName: __ZNSt3__116allocator_traitsINS_9allocatorIPN3bstIiE4nodeEEEE8max_sizeB7v160006IS6_vEEmRKS6_, symObjAddr: 0x4CDC, symBinAddr: 0x100005F2C, symSize: 0x24 }
  - { offsetInCU: 0xE366, offset: 0xE366, size: 0x8, addend: 0x0, symName: __ZNKSt3__19allocatorIPN3bstIiE4nodeEE8max_sizeB7v160006Ev, symObjAddr: 0x4D5C, symBinAddr: 0x100005FAC, symSize: 0x14 }
  - { offsetInCU: 0xE396, offset: 0xE396, size: 0x8, addend: 0x0, symName: __ZNKSt3__123__move_backward_trivialclB7v160006IPPN3bstIiE4nodeES6_Li0EEENS_4pairIPT_PT0_EES9_S9_SB_, symObjAddr: 0x4F20, symBinAddr: 0x100006170, symSize: 0x48 }
  - { offsetInCU: 0xE408, offset: 0xE408, size: 0x8, addend: 0x0, symName: __ZNKSt3__16__lessImmEclB7v160006ERKmS3_, symObjAddr: 0x5088, symBinAddr: 0x1000062D8, symSize: 0x34 }
  - { offsetInCU: 0xE44A, offset: 0xE44A, size: 0x8, addend: 0x0, symName: __ZNSt3__114__split_bufferIPPN3bstIiE4nodeERNS_9allocatorIS5_EEEC2EmmS8_, symObjAddr: 0x50BC, symBinAddr: 0x10000630C, symSize: 0xD4 }
  - { offsetInCU: 0xE4BE, offset: 0xE4BE, size: 0x8, addend: 0x0, symName: __ZNSt3__117__compressed_pairIPPPN3bstIiE4nodeERNS_9allocatorIS5_EEEC1B7v160006IDnS9_EEOT_OT0_, symObjAddr: 0x5190, symBinAddr: 0x1000063E0, symSize: 0x3C }
  - { offsetInCU: 0xE516, offset: 0xE516, size: 0x8, addend: 0x0, symName: __ZNSt3__117__compressed_pairIPPPN3bstIiE4nodeERNS_9allocatorIS5_EEEC2B7v160006IDnS9_EEOT_OT0_, symObjAddr: 0x520C, symBinAddr: 0x10000645C, symSize: 0x48 }
  - { offsetInCU: 0xE56E, offset: 0xE56E, size: 0x8, addend: 0x0, symName: __ZNSt3__122__compressed_pair_elemIRNS_9allocatorIPPN3bstIiE4nodeEEELi1ELb0EEC2B7v160006IS8_vEEOT_, symObjAddr: 0x5254, symBinAddr: 0x1000064A4, symSize: 0x20 }
  - { offsetInCU: 0xE5B0, offset: 0xE5B0, size: 0x8, addend: 0x0, symName: __ZNSt3__19allocatorIPPN3bstIiE4nodeEE8allocateB7v160006Em, symObjAddr: 0x5274, symBinAddr: 0x1000064C4, symSize: 0x84 }
  - { offsetInCU: 0xE5EE, offset: 0xE5EE, size: 0x8, addend: 0x0, symName: __ZNSt3__116allocator_traitsINS_9allocatorIPPN3bstIiE4nodeEEEE8max_sizeB7v160006IS7_vEEmRKS7_, symObjAddr: 0x52F8, symBinAddr: 0x100006548, symSize: 0x24 }
  - { offsetInCU: 0xE61C, offset: 0xE61C, size: 0x8, addend: 0x0, symName: __ZNKSt3__19allocatorIPPN3bstIiE4nodeEE8max_sizeB7v160006Ev, symObjAddr: 0x531C, symBinAddr: 0x10000656C, symSize: 0x14 }
  - { offsetInCU: 0xE642, offset: 0xE642, size: 0x8, addend: 0x0, symName: __ZNSt3__122__allocator_destructorINS_9allocatorIPN3bstIiE4nodeEEEEC2B7v160006ERS6_m, symObjAddr: 0x5330, symBinAddr: 0x100006580, symSize: 0x2C }
  - { offsetInCU: 0xE688, offset: 0xE688, size: 0x8, addend: 0x0, symName: __ZNSt3__110unique_ptrIPPN3bstIiE4nodeENS_22__allocator_destructorINS_9allocatorIS4_EEEEEC2B7v160006ILb1EvEES5_NS_16__dependent_typeINS_27__unique_ptr_deleter_sfinaeIS9_EEXT_EE20__good_rval_ref_typeE, symObjAddr: 0x535C, symBinAddr: 0x1000065AC, symSize: 0x5C }
  - { offsetInCU: 0xE6D9, offset: 0xE6D9, size: 0x8, addend: 0x0, symName: __ZNSt3__117__compressed_pairIPPN3bstIiE4nodeENS_22__allocator_destructorINS_9allocatorIS4_EEEEEC1B7v160006IRS5_S9_EEOT_OT0_, symObjAddr: 0x53B8, symBinAddr: 0x100006608, symSize: 0x3C }
  - { offsetInCU: 0xE731, offset: 0xE731, size: 0x8, addend: 0x0, symName: __ZNSt3__117__compressed_pairIPPN3bstIiE4nodeENS_22__allocator_destructorINS_9allocatorIS4_EEEEEC2B7v160006IRS5_S9_EEOT_OT0_, symObjAddr: 0x53F4, symBinAddr: 0x100006644, symSize: 0x48 }
  - { offsetInCU: 0xE789, offset: 0xE789, size: 0x8, addend: 0x0, symName: __ZNSt3__122__compressed_pair_elemIPPN3bstIiE4nodeELi0ELb0EEC2B7v160006IRS5_vEEOT_, symObjAddr: 0x543C, symBinAddr: 0x10000668C, symSize: 0x24 }
  - { offsetInCU: 0xE7CB, offset: 0xE7CB, size: 0x8, addend: 0x0, symName: __ZNSt3__122__compressed_pair_elemINS_22__allocator_destructorINS_9allocatorIPN3bstIiE4nodeEEEEELi1ELb0EEC2B7v160006IS8_vEEOT_, symObjAddr: 0x5460, symBinAddr: 0x1000066B0, symSize: 0x24 }
  - { offsetInCU: 0xE80D, offset: 0xE80D, size: 0x8, addend: 0x0, symName: __ZNKSt3__117__compressed_pairIPPN3bstIiE4nodeENS_22__allocator_destructorINS_9allocatorIS4_EEEEE5firstB7v160006Ev, symObjAddr: 0x5484, symBinAddr: 0x1000066D4, symSize: 0x24 }
  - { offsetInCU: 0xE833, offset: 0xE833, size: 0x8, addend: 0x0, symName: __ZNKSt3__122__compressed_pair_elemIPPN3bstIiE4nodeELi0ELb0EE5__getB7v160006Ev, symObjAddr: 0x54A8, symBinAddr: 0x1000066F8, symSize: 0x14 }
  - { offsetInCU: 0xE859, offset: 0xE859, size: 0x8, addend: 0x0, symName: __ZNSt3__117__compressed_pairIPPN3bstIiE4nodeENS_22__allocator_destructorINS_9allocatorIS4_EEEEE5firstB7v160006Ev, symObjAddr: 0x54BC, symBinAddr: 0x10000670C, symSize: 0x24 }
  - { offsetInCU: 0xE87F, offset: 0xE87F, size: 0x8, addend: 0x0, symName: __ZNSt3__122__compressed_pair_elemIPPN3bstIiE4nodeELi0ELb0EE5__getB7v160006Ev, symObjAddr: 0x54E0, symBinAddr: 0x100006730, symSize: 0x14 }
  - { offsetInCU: 0xE8A5, offset: 0xE8A5, size: 0x8, addend: 0x0, symName: __ZNSt3__117__compressed_pairIPPPN3bstIiE4nodeENS_9allocatorIS5_EEE5firstB7v160006Ev, symObjAddr: 0x54F4, symBinAddr: 0x100006744, symSize: 0x24 }
  - { offsetInCU: 0xE8CB, offset: 0xE8CB, size: 0x8, addend: 0x0, symName: __ZNSt3__122__compressed_pair_elemIPPPN3bstIiE4nodeELi0ELb0EE5__getB7v160006Ev, symObjAddr: 0x5518, symBinAddr: 0x100006768, symSize: 0x14 }
  - { offsetInCU: 0xE8F1, offset: 0xE8F1, size: 0x8, addend: 0x0, symName: __ZNSt3__117__compressed_pairIPPPN3bstIiE4nodeERNS_9allocatorIS5_EEE5firstB7v160006Ev, symObjAddr: 0x552C, symBinAddr: 0x10000677C, symSize: 0x24 }
  - { offsetInCU: 0xE917, offset: 0xE917, size: 0x8, addend: 0x0, symName: __ZNSt3__110unique_ptrIPPN3bstIiE4nodeENS_22__allocator_destructorINS_9allocatorIS4_EEEEED2B7v160006Ev, symObjAddr: 0x5550, symBinAddr: 0x1000067A0, symSize: 0x30 }
  - { offsetInCU: 0xE941, offset: 0xE941, size: 0x8, addend: 0x0, symName: __ZNSt3__110unique_ptrIPPN3bstIiE4nodeENS_22__allocator_destructorINS_9allocatorIS4_EEEEE5resetB7v160006ES5_, symObjAddr: 0x5580, symBinAddr: 0x1000067D0, symSize: 0x78 }
  - { offsetInCU: 0xE985, offset: 0xE985, size: 0x8, addend: 0x0, symName: __ZNSt3__117__compressed_pairIPPN3bstIiE4nodeENS_22__allocator_destructorINS_9allocatorIS4_EEEEE6secondB7v160006Ev, symObjAddr: 0x55F8, symBinAddr: 0x100006848, symSize: 0x28 }
  - { offsetInCU: 0xE9AB, offset: 0xE9AB, size: 0x8, addend: 0x0, symName: __ZNSt3__122__allocator_destructorINS_9allocatorIPN3bstIiE4nodeEEEEclB7v160006EPS5_, symObjAddr: 0x5620, symBinAddr: 0x100006870, symSize: 0x34 }
  - { offsetInCU: 0xE9DF, offset: 0xE9DF, size: 0x8, addend: 0x0, symName: __ZNSt3__122__compressed_pair_elemINS_22__allocator_destructorINS_9allocatorIPN3bstIiE4nodeEEEEELi1ELb0EE5__getB7v160006Ev, symObjAddr: 0x5654, symBinAddr: 0x1000068A4, symSize: 0x14 }
  - { offsetInCU: 0xEA05, offset: 0xEA05, size: 0x8, addend: 0x0, symName: __ZNSt3__116allocator_traitsINS_9allocatorIPN3bstIiE4nodeEEEE10deallocateB7v160006ERS6_PS5_m, symObjAddr: 0x5668, symBinAddr: 0x1000068B8, symSize: 0x34 }
  - { offsetInCU: 0xEA47, offset: 0xEA47, size: 0x8, addend: 0x0, symName: __ZNSt3__19allocatorIPN3bstIiE4nodeEE10deallocateB7v160006EPS4_m, symObjAddr: 0x569C, symBinAddr: 0x1000068EC, symSize: 0x70 }
  - { offsetInCU: 0xEA89, offset: 0xEA89, size: 0x8, addend: 0x0, symName: __ZNSt3__114__split_bufferIPPN3bstIiE4nodeERNS_9allocatorIS5_EEED2Ev, symObjAddr: 0x570C, symBinAddr: 0x10000695C, symSize: 0x80 }
  - { offsetInCU: 0xEAB5, offset: 0xEAB5, size: 0x8, addend: 0x0, symName: __ZNSt3__114__split_bufferIPPN3bstIiE4nodeERNS_9allocatorIS5_EEE5clearB7v160006Ev, symObjAddr: 0x578C, symBinAddr: 0x1000069DC, symSize: 0x28 }
  - { offsetInCU: 0xEADB, offset: 0xEADB, size: 0x8, addend: 0x0, symName: __ZNKSt3__114__split_bufferIPPN3bstIiE4nodeERNS_9allocatorIS5_EEE8capacityB7v160006Ev, symObjAddr: 0x57B4, symBinAddr: 0x100006A04, symSize: 0x40 }
  - { offsetInCU: 0xEB01, offset: 0xEB01, size: 0x8, addend: 0x0, symName: __ZNSt3__114__split_bufferIPPN3bstIiE4nodeERNS_9allocatorIS5_EEE17__destruct_at_endB7v160006EPS5_, symObjAddr: 0x57F4, symBinAddr: 0x100006A44, symSize: 0x2C }
  - { offsetInCU: 0xEB35, offset: 0xEB35, size: 0x8, addend: 0x0, symName: __ZNSt3__114__split_bufferIPPN3bstIiE4nodeERNS_9allocatorIS5_EEE17__destruct_at_endB7v160006EPS5_NS_17integral_constantIbLb0EEE, symObjAddr: 0x5820, symBinAddr: 0x100006A70, symSize: 0x94 }
  - { offsetInCU: 0xEB75, offset: 0xEB75, size: 0x8, addend: 0x0, symName: __ZNKSt3__114__split_bufferIPPN3bstIiE4nodeERNS_9allocatorIS5_EEE9__end_capB7v160006Ev, symObjAddr: 0x58B4, symBinAddr: 0x100006B04, symSize: 0x28 }
  - { offsetInCU: 0xEB9B, offset: 0xEB9B, size: 0x8, addend: 0x0, symName: __ZNKSt3__117__compressed_pairIPPPN3bstIiE4nodeERNS_9allocatorIS5_EEE5firstB7v160006Ev, symObjAddr: 0x58DC, symBinAddr: 0x100006B2C, symSize: 0x24 }
  - { offsetInCU: 0xEBC1, offset: 0xEBC1, size: 0x8, addend: 0x0, symName: __ZNSt3__19allocatorIPN3bstIiE4nodeEE9constructB7v160006IS4_JRKS4_EEEvPT_DpOT0_, symObjAddr: 0x5900, symBinAddr: 0x100006B50, symSize: 0x28 }
  - { offsetInCU: 0xEC17, offset: 0xEC17, size: 0x8, addend: 0x0, symName: __ZNKSt3__114__split_bufferIPPN3bstIiE4nodeENS_9allocatorIS5_EEE5emptyB7v160006Ev, symObjAddr: 0x5928, symBinAddr: 0x100006B78, symSize: 0x28 }
  - { offsetInCU: 0xEC3D, offset: 0xEC3D, size: 0x8, addend: 0x0, symName: __ZNSt3__116__deque_iteratorIPN3bstIiE4nodeEPS4_RS4_PS5_lLl512EEC1B7v160006ES7_S5_, symObjAddr: 0x5950, symBinAddr: 0x100006BA0, symSize: 0x3C }
  - { offsetInCU: 0xEC85, offset: 0xEC85, size: 0x8, addend: 0x0, symName: __ZNSt3__116__deque_iteratorIPN3bstIiE4nodeEPS4_RS4_PS5_lLl512EEC2B7v160006ES7_S5_, symObjAddr: 0x598C, symBinAddr: 0x100006BDC, symSize: 0x2C }
  - { offsetInCU: 0xECCD, offset: 0xECCD, size: 0x8, addend: 0x0, symName: __ZNSt3__117__compressed_pairImNS_9allocatorIPN3bstIiE4nodeEEEE5firstB7v160006Ev, symObjAddr: 0x59B8, symBinAddr: 0x100006C08, symSize: 0x24 }
  - { offsetInCU: 0xECF3, offset: 0xECF3, size: 0x8, addend: 0x0, symName: __ZNSt3__122__compressed_pair_elemImLi0ELb0EE5__getB7v160006Ev, symObjAddr: 0x59DC, symBinAddr: 0x100006C2C, symSize: 0x14 }
  - { offsetInCU: 0xED19, offset: 0xED19, size: 0x8, addend: 0x0, symName: __ZNKSt3__15dequeIPN3bstIiE4nodeENS_9allocatorIS4_EEE5emptyB7v160006Ev, symObjAddr: 0x59F0, symBinAddr: 0x100006C40, symSize: 0x30 }
  - { offsetInCU: 0xED3F, offset: 0xED3F, size: 0x8, addend: 0x0, symName: __ZNSt3__15dequeIPN3bstIiE4nodeENS_9allocatorIS4_EEE5frontEv, symObjAddr: 0x5A20, symBinAddr: 0x100006C70, symSize: 0x50 }
  - { offsetInCU: 0xED67, offset: 0xED67, size: 0x8, addend: 0x0, symName: __ZNSt3__15dequeIPN3bstIiE4nodeENS_9allocatorIS4_EEE9pop_frontEv, symObjAddr: 0x5A70, symBinAddr: 0x100006CC0, symSize: 0xAC }
  - { offsetInCU: 0xED9E, offset: 0xED9E, size: 0x8, addend: 0x0, symName: __ZNSt3__116allocator_traitsINS_9allocatorIPN3bstIiE4nodeEEEE7destroyB7v160006IS5_vEEvRS6_PT_, symObjAddr: 0x5B1C, symBinAddr: 0x100006D6C, symSize: 0x2C }
  - { offsetInCU: 0xEDDB, offset: 0xEDDB, size: 0x8, addend: 0x0, symName: __ZNSt3__15dequeIPN3bstIiE4nodeENS_9allocatorIS4_EEE26__maybe_remove_front_spareB7v160006Eb, symObjAddr: 0x5B5C, symBinAddr: 0x100006DAC, symSize: 0xDC }
  - { offsetInCU: 0xEE10, offset: 0xEE10, size: 0x8, addend: 0x0, symName: __ZNSt3__19allocatorIPN3bstIiE4nodeEE7destroyB7v160006EPS4_, symObjAddr: 0x5C38, symBinAddr: 0x100006E88, symSize: 0x14 }
  - { offsetInCU: 0xEE44, offset: 0xEE44, size: 0x8, addend: 0x0, symName: __ZNKSt3__15dequeIPN3bstIiE4nodeENS_9allocatorIS4_EEE20__front_spare_blocksB7v160006Ev, symObjAddr: 0x5C4C, symBinAddr: 0x100006E9C, symSize: 0x2C }
  - { offsetInCU: 0xEE6A, offset: 0xEE6A, size: 0x8, addend: 0x0, symName: __ZNSt3__18__iom_t6C1B7v160006Ei, symObjAddr: 0x5CE4, symBinAddr: 0x100006F34, symSize: 0x34 }
  - { offsetInCU: 0xEEA2, offset: 0xEEA2, size: 0x8, addend: 0x0, symName: __ZNSt3__18__iom_t6C2B7v160006Ei, symObjAddr: 0x5D18, symBinAddr: 0x100006F68, symSize: 0x20 }
  - { offsetInCU: 0xEEDA, offset: 0xEEDA, size: 0x8, addend: 0x0, symName: __ZNSt3__15queueIPN3bstIiE4nodeENS_5dequeIS4_NS_9allocatorIS4_EEEEED2Ev, symObjAddr: 0x5D38, symBinAddr: 0x100006F88, symSize: 0x2C }
  - { offsetInCU: 0xEF07, offset: 0xEF07, size: 0x8, addend: 0x0, symName: __ZNSt3__15dequeIPN3bstIiE4nodeENS_9allocatorIS4_EEED1B7v160006Ev, symObjAddr: 0x5D64, symBinAddr: 0x100006FB4, symSize: 0x2C }
  - { offsetInCU: 0xEF31, offset: 0xEF31, size: 0x8, addend: 0x0, symName: __ZNSt3__15dequeIPN3bstIiE4nodeENS_9allocatorIS4_EEED2B7v160006Ev, symObjAddr: 0x5D90, symBinAddr: 0x100006FE0, symSize: 0x9C }
  - { offsetInCU: 0xEF88, offset: 0xEF88, size: 0x8, addend: 0x0, symName: __ZNSt3__15dequeIPN3bstIiE4nodeENS_9allocatorIS4_EEE5clearEv, symObjAddr: 0x5E2C, symBinAddr: 0x10000707C, symSize: 0x170 }
  - { offsetInCU: 0xEFEC, offset: 0xEFEC, size: 0x8, addend: 0x0, symName: __ZNSt3__15dequeIPN3bstIiE4nodeENS_9allocatorIS4_EEE5beginB7v160006Ev, symObjAddr: 0x5F9C, symBinAddr: 0x1000071EC, symSize: 0xA8 }
  - { offsetInCU: 0xF021, offset: 0xF021, size: 0x8, addend: 0x0, symName: __ZNSt3__116__deque_iteratorIPN3bstIiE4nodeEPS4_RS4_PS5_lLl512EEppB7v160006Ev, symObjAddr: 0x6078, symBinAddr: 0x1000072C8, symSize: 0x70 }
  - { offsetInCU: 0xF047, offset: 0xF047, size: 0x8, addend: 0x0, symName: __ZN3bstIiE8iteratorC1EPNS0_4nodeE, symObjAddr: 0x6118, symBinAddr: 0x100007368, symSize: 0x34 }
  - { offsetInCU: 0xF080, offset: 0xF080, size: 0x8, addend: 0x0, symName: __ZN3bstIiE8iteratorC2EPNS0_4nodeE, symObjAddr: 0x614C, symBinAddr: 0x10000739C, symSize: 0x20 }
  - { offsetInCU: 0xF0B9, offset: 0xF0B9, size: 0x8, addend: 0x0, symName: __ZN3bstIiE8iteratorppEv, symObjAddr: 0x616C, symBinAddr: 0x1000073BC, symSize: 0xFC }
  - { offsetInCU: 0xF0E0, offset: 0xF0E0, size: 0x8, addend: 0x0, symName: __ZN3bstIiE8iteratorC2Ev, symObjAddr: 0x6268, symBinAddr: 0x1000074B8, symSize: 0x18 }
  - { offsetInCU: 0xF10B, offset: 0xF10B, size: 0x8, addend: 0x0, symName: __ZNKSt3__18ios_base3eofB7v160006Ev, symObjAddr: 0x6280, symBinAddr: 0x1000074D0, symSize: 0x24 }
...
